target datalayout = "e-m:e-p270:32:32-p271:32:32-p272:64:64-i64:64-i128:128-f80:128-n8:16:32:64-S128"
target triple = "x86_64-pc-linux-gnu"

%struct.AVFilterContext = type { ptr, ptr, ptr, ptr, ptr, i32, ptr, ptr, i32, ptr, ptr, i32, i32, ptr, ptr, ptr, ptr, i32, ptr, i32, i32 }
%struct.BiquadsContext = type { ptr, i32, i32, i32, i32, i32, i32, i32, i32, double, double, double, double, ptr, %struct.AVChannelLayout, i32, i32, [3 x double], [3 x double], [3 x float], [3 x float], [3 x double], [3 x double], [3 x ptr], ptr, [2 x ptr], i32, i64, i32, ptr }
%struct.AVChannelLayout = type { i32, i32, %union.anon.1, ptr }
%union.anon.1 = type { i64 }

; Function Attrs: cold nounwind optsize uwtable
define internal i32 @equalizer_init(ptr noundef %0) #0 {
  %2 = alloca ptr, align 8
  %3 = alloca ptr, align 8
  store ptr %0, ptr %2, align 8, !tbaa !4
  call void @llvm.lifetime.start.p0(i64 8, ptr %3) #11
  %4 = load ptr, ptr %2, align 8, !tbaa !4
  %5 = getelementptr inbounds nuw %struct.AVFilterContext, ptr %4, i32 0, i32 9
  %6 = load ptr, ptr %5, align 8, !tbaa !9
  store ptr %6, ptr %3, align 8, !tbaa !22
  %7 = load ptr, ptr %3, align 8, !tbaa !22
  %8 = getelementptr inbounds nuw %struct.BiquadsContext, ptr %7, i32 0, i32 1
  store i32 1, ptr %8, align 8, !tbaa !24
  %9 = load ptr, ptr %3, align 8, !tbaa !22
  %10 = getelementptr inbounds nuw %struct.BiquadsContext, ptr %9, i32 0, i32 27
  store i64 -9223372036854775808, ptr %10, align 8, !tbaa !30
  call void @llvm.lifetime.end.p0(i64 8, ptr %3) #11
  ret i32 0
}